target datalayout = "e-m:e-p270:32:32-p271:32:32-p272:64:64-i64:64-i128:128-f80:128-n8:16:32:64-S128"
target triple = "x86_64-pc-linux-gnu"

@.str.4 = private unnamed_addr constant [2 x i8] c"\0A\00", align 1
@.str.5 = private unnamed_addr constant [38 x i8] c"    extract_fa [options] [selection]\0A\00", align 1
@.str.6 = private unnamed_addr constant [63 x i8] c"This pass extracts full/half adders from a gate-level design.\0A\00", align 1
@.str.7 = private unnamed_addr constant [14 x i8] c"    -fa, -ha\0A\00", align 1
@.str.8 = private unnamed_addr constant [58 x i8] c"        Enable cell types (fa=full adder, ha=half adder)\0A\00", align 1
@.str.9 = private unnamed_addr constant [63 x i8] c"        All types are enabled if none of this options is used\0A\00", align 1
@.str.10 = private unnamed_addr constant [14 x i8] c"    -d <int>\0A\00", align 1
@.str.11 = private unnamed_addr constant [66 x i8] c"        Set maximum depth for extracted logic cones (default=20)\0A\00", align 1
@.str.12 = private unnamed_addr constant [14 x i8] c"    -b <int>\0A\00", align 1
@.str.13 = private unnamed_addr constant [67 x i8] c"        Set maximum breadth for extracted logic cones (default=6)\0A\00", align 1
@.str.14 = private unnamed_addr constant [8 x i8] c"    -v\0A\00", align 1
@.str.15 = private unnamed_addr constant [24 x i8] c"        Verbose output\0A\00", align 1

; Function Attrs: mustprogress uwtable
define internal void @_ZN12_GLOBAL__N_113ExtractFaPass4helpEv(ptr noundef nonnull align 8 dereferenceable(104) %0) unnamed_addr #4 align 2 {
  %2 = alloca ptr, align 8
  store ptr %0, ptr %2, align 8, !tbaa !6
  call void (ptr, ...) @_ZN5Yosys3logEPKcz(ptr noundef @.str.4)
  call void (ptr, ...) @_ZN5Yosys3logEPKcz(ptr noundef @.str.5)
  call void (ptr, ...) @_ZN5Yosys3logEPKcz(ptr noundef @.str.4)
  call void (ptr, ...) @_ZN5Yosys3logEPKcz(ptr noundef @.str.6)
  call void (ptr, ...) @_ZN5Yosys3logEPKcz(ptr noundef @.str.4)
  call void (ptr, ...) @_ZN5Yosys3logEPKcz(ptr noundef @.str.7)
  call void (ptr, ...) @_ZN5Yosys3logEPKcz(ptr noundef @.str.8)
  call void (ptr, ...) @_ZN5Yosys3logEPKcz(ptr noundef @.str.9)
  call void (ptr, ...) @_ZN5Yosys3logEPKcz(ptr noundef @.str.4)
  call void (ptr, ...) @_ZN5Yosys3logEPKcz(ptr noundef @.str.10)
  call void (ptr, ...) @_ZN5Yosys3logEPKcz(ptr noundef @.str.11)
  call void (ptr, ...) @_ZN5Yosys3logEPKcz(ptr noundef @.str.4)
  call void (ptr, ...) @_ZN5Yosys3logEPKcz(ptr noundef @.str.12)
  call void (ptr, ...) @_ZN5Yosys3logEPKcz(ptr noundef @.str.13)
  call void (ptr, ...) @_ZN5Yosys3logEPKcz(ptr noundef @.str.4)
  call void (ptr, ...) @_ZN5Yosys3logEPKcz(ptr noundef @.str.14)
  call void (ptr, ...) @_ZN5Yosys3logEPKcz(ptr noundef @.str.15)
  call void (ptr, ...) @_ZN5Yosys3logEPKcz(ptr noundef @.str.4)
  ret void
}